target datalayout = "e-m:e-p270:32:32-p271:32:32-p272:64:64-i64:64-i128:128-f80:128-n8:16:32:64-S128"
target triple = "x86_64-pc-linux-gnu"

%struct.stbi__write_context = type { ptr, ptr }

@.str.12 = private unnamed_addr constant [24 x i8] c"11 4 22 44 44 22 444444\00", align 1

; Function Attrs: mustprogress uwtable
define internal noundef i32 @_ZL19stbi_write_bmp_coreP19stbi__write_contextiiiPKv(ptr noundef %0, i32 noundef %1, i32 noundef %2, i32 noundef %3, ptr noundef %4) #4 {
  %6 = alloca ptr, align 8
  %7 = alloca i32, align 4
  %8 = alloca i32, align 4
  %9 = alloca i32, align 4
  %10 = alloca ptr, align 8
  %11 = alloca i32, align 4
  store ptr %0, ptr %6, align 8
  store i32 %1, ptr %7, align 4
  store i32 %2, ptr %8, align 4
  store i32 %3, ptr %9, align 4
  store ptr %4, ptr %10, align 8
  %12 = load i32, ptr %7, align 4
  %13 = sub nsw i32 0, %12
  %14 = mul nsw i32 %13, 3
  %15 = and i32 %14, 3
  store i32 %15, ptr %11, align 4
  %16 = load ptr, ptr %6, align 8
  %17 = load i32, ptr %7, align 4
  %18 = load i32, ptr %8, align 4
  %19 = load i32, ptr %9, align 4
  %20 = load ptr, ptr %10, align 8
  %21 = load i32, ptr %11, align 4
  %22 = load i32, ptr %7, align 4
  %23 = mul nsw i32 %22, 3
  %24 = load i32, ptr %11, align 4
  %25 = add nsw i32 %23, %24
  %26 = load i32, ptr %8, align 4
  %27 = mul nsw i32 %25, %26
  %28 = add nsw i32 54, %27
  %29 = load i32, ptr %7, align 4
  %30 = load i32, ptr %8, align 4
  %31 = call noundef i32 (ptr, i32, i32, i32, i32, i32, i32, ptr, i32, i32, ptr, ...) @_ZL14stbiw__outfileP19stbi__write_contextiiiiiiPviiPKcz(ptr noundef %16, i32 noundef -1, i32 noundef -1, i32 noundef %17, i32 noundef %18, i32 noundef %19, i32 noundef 1, ptr noundef %20, i32 noundef 0, i32 noundef %21, ptr noundef @.str.12, i32 noundef 66, i32 noundef 77, i32 noundef %28, i32 noundef 0, i32 noundef 0, i32 noundef 54, i32 noundef 40, i32 noundef %29, i32 noundef %30, i32 noundef 1, i32 noundef 24, i32 noundef 0, i32 noundef 0, i32 noundef 0, i32 noundef 0, i32 noundef 0, i32 noundef 0)
  ret i32 %31
}

; Function Attrs: mustprogress nounwind uwtable
define internal void @_ZL27stbi__start_write_callbacksP19stbi__write_contextPFvPvS1_iES1_(ptr noundef %0, ptr noundef %1, ptr noundef %2) #1 {
  %4 = alloca ptr, align 8
  %5 = alloca ptr, align 8
  %6 = alloca ptr, align 8
  store ptr %0, ptr %4, align 8
  store ptr %1, ptr %5, align 8
  store ptr %2, ptr %6, align 8
  %7 = load ptr, ptr %5, align 8
  %8 = load ptr, ptr %4, align 8
  %9 = getelementptr inbounds %struct.stbi__write_context, ptr %8, i32 0, i32 0
  store ptr %7, ptr %9, align 8
  %10 = load ptr, ptr %6, align 8
  %11 = load ptr, ptr %4, align 8
  %12 = getelementptr inbounds %struct.stbi__write_context, ptr %11, i32 0, i32 1
  store ptr %10, ptr %12, align 8
  ret void
}

; Function Attrs: mustprogress uwtable
define dso_local i32 @stbi_write_bmp_to_func(ptr noundef %0, ptr noundef %1, i32 noundef %2, i32 noundef %3, i32 noundef %4, ptr noundef %5) #4 {
  %7 = alloca ptr, align 8
  %8 = alloca ptr, align 8
  %9 = alloca i32, align 4
  %10 = alloca i32, align 4
  %11 = alloca i32, align 4
  %12 = alloca ptr, align 8
  %13 = alloca %struct.stbi__write_context, align 8
  store ptr %0, ptr %7, align 8
  store ptr %1, ptr %8, align 8
  store i32 %2, ptr %9, align 4
  store i32 %3, ptr %10, align 4
  store i32 %4, ptr %11, align 4
  store ptr %5, ptr %12, align 8
  %14 = load ptr, ptr %7, align 8
  %15 = load ptr, ptr %8, align 8
  call void @_ZL27stbi__start_write_callbacksP19stbi__write_contextPFvPvS1_iES1_(ptr noundef %13, ptr noundef %14, ptr noundef %15)
  %16 = load i32, ptr %9, align 4
  %17 = load i32, ptr %10, align 4
  %18 = load i32, ptr %11, align 4
  %19 = load ptr, ptr %12, align 8
  %20 = call noundef i32 @_ZL19stbi_write_bmp_coreP19stbi__write_contextiiiPKv(ptr noundef %13, i32 noundef %16, i32 noundef %17, i32 noundef %18, ptr noundef %19)
  ret i32 %20
}