; Function Attrs: mustprogress uwtable
define dso_local noundef i32 @stbi_write_bmp_to_func(ptr noundef %0, ptr noundef %1, i32 noundef %2, i32 noundef %3, i32 noundef %4, ptr noundef %5) local_unnamed_addr #3 {
  %7 = alloca %struct.stbi__write_context, align 8
  store ptr %0, ptr %7, align 8
  %8 = getelementptr inbounds i8, ptr %7, i64 8
  store ptr %1, ptr %8, align 8
  %9 = and i32 %2, 3
  %10 = mul nsw i32 %2, 3
  %11 = add nsw i32 %10, %9
  %12 = mul nsw i32 %11, %3
  %13 = add nsw i32 %12, 54
  %14 = call noundef i32 (ptr, i32, i32, i32, i32, i32, i32, ptr, i32, i32, ptr, ...) @_ZL14stbiw__outfileP19stbi__write_contextiiiiiiPviiPKcz(ptr noundef nonnull %7, i32 poison, i32 poison, i32 noundef %2, i32 noundef %3, i32 noundef %4, i32 noundef 1, ptr noundef %5, i32 noundef 0, i32 noundef %9, ptr noundef nonnull @.str.12, i32 noundef 66, i32 noundef 77, i32 noundef %13, i32 noundef 0, i32 noundef 0, i32 noundef 54, i32 noundef 40, i32 noundef %2, i32 noundef %3, i32 noundef 1, i32 noundef 24, i32 noundef 0, i32 noundef 0, i32 noundef 0, i32 noundef 0, i32 noundef 0, i32 noundef 0), !range !5
  ret i32 %14
}